; Function Attrs: mustprogress uwtable
define hidden void @_ZN6Assimp19Discreet3DSExporter17WritePercentChunkEd(ptr noundef nonnull align 8 dereferenceable(160) %0, double noundef %1) local_unnamed_addr #0 align 2 personality ptr @__gxx_personality_v0 {
  %3 = getelementptr inbounds nuw i8, ptr %0, i64 56
  %4 = load i64, ptr %3, align 8
  %5 = add i64 %4, 2
  %6 = getelementptr inbounds nuw i8, ptr %0, i64 32
  %7 = getelementptr inbounds nuw i8, ptr %0, i64 40
  %8 = load ptr, ptr %7, align 8
  %9 = load ptr, ptr %6, align 8
  %10 = ptrtoint ptr %8 to i64
  %11 = ptrtoint ptr %9 to i64
  %12 = sub i64 %10, %11
  %.not.i.i.i = icmp ult i64 %5, %12
  br i1 %.not.i.i.i, label %_ZN6Assimp12StreamWriterILb0ELb0EE5PutU2Et.exit.i, label %13

13:                                               ; preds = %2
  tail call void @_ZNSt6vectorIhSaIhEE6resizeEm(ptr noundef nonnull align 8 dereferenceable(24) %6, i64 noundef %5)
  %.pre.i.i.i = load i64, ptr %3, align 8
  %.pre2.i.i.i = load ptr, ptr %6, align 8
  br label %_ZN6Assimp12StreamWriterILb0ELb0EE5PutU2Et.exit.i

_ZN6Assimp12StreamWriterILb0ELb0EE5PutU2Et.exit.i: ; preds = %13, %2
  %14 = phi ptr [ %.pre2.i.i.i, %13 ], [ %9, %2 ]
  %15 = phi i64 [ %.pre.i.i.i, %13 ], [ %4, %2 ]
  %16 = getelementptr inbounds nuw i8, ptr %14, i64 %15
  store i16 50, ptr %16, align 1
  %17 = load i64, ptr %3, align 8
  %18 = add i64 %17, 2
  store i64 %18, ptr %3, align 8
  %19 = add i64 %17, 6
  %20 = load ptr, ptr %7, align 8
  %21 = load ptr, ptr %6, align 8
  %22 = ptrtoint ptr %20 to i64
  %23 = ptrtoint ptr %21 to i64
  %24 = sub i64 %22, %23
  %.not.i.i5.i = icmp ult i64 %19, %24
  br i1 %.not.i.i5.i, label %_ZN6Assimp12_GLOBAL__N_111ChunkWriterC2ERNS_12StreamWriterILb0ELb0EEEt.exit, label %25

25:                                               ; preds = %_ZN6Assimp12StreamWriterILb0ELb0EE5PutU2Et.exit.i
  tail call void @_ZNSt6vectorIhSaIhEE6resizeEm(ptr noundef nonnull align 8 dereferenceable(24) %6, i64 noundef %19)
  %.pre.i.i6.i = load i64, ptr %3, align 8
  %.pre2.i.i7.i = load ptr, ptr %6, align 8
  br label %_ZN6Assimp12_GLOBAL__N_111ChunkWriterC2ERNS_12StreamWriterILb0ELb0EEEt.exit

_ZN6Assimp12_GLOBAL__N_111ChunkWriterC2ERNS_12StreamWriterILb0ELb0EEEt.exit: ; preds = %_ZN6Assimp12StreamWriterILb0ELb0EE5PutU2Et.exit.i, %25
  %26 = phi ptr [ %.pre2.i.i7.i, %25 ], [ %21, %_ZN6Assimp12StreamWriterILb0ELb0EE5PutU2Et.exit.i ]
  %27 = phi i64 [ %.pre.i.i6.i, %25 ], [ %18, %_ZN6Assimp12StreamWriterILb0ELb0EE5PutU2Et.exit.i ]
  %28 = getelementptr inbounds nuw i8, ptr %26, i64 %27
  store i32 -559038737, ptr %28, align 1
  %29 = load i64, ptr %3, align 8
  %30 = add i64 %29, 4
  store i64 %30, ptr %3, align 8
  %31 = add i64 %29, 12
  %32 = load ptr, ptr %7, align 8
  %33 = load ptr, ptr %6, align 8
  %34 = ptrtoint ptr %32 to i64
  %35 = ptrtoint ptr %33 to i64
  %36 = sub i64 %34, %35
  %.not.i.i = icmp ult i64 %31, %36
  br i1 %.not.i.i, label %38, label %37

37:                                               ; preds = %_ZN6Assimp12_GLOBAL__N_111ChunkWriterC2ERNS_12StreamWriterILb0ELb0EEEt.exit
  invoke void @_ZNSt6vectorIhSaIhEE6resizeEm(ptr noundef nonnull align 8 dereferenceable(24) %6, i64 noundef %31)
          to label %.noexc unwind label %59

.noexc:                                           ; preds = %37
  %.pre.i.i = load i64, ptr %3, align 8
  %.pre2.i.i = load ptr, ptr %6, align 8
  br label %38

38:                                               ; preds = %.noexc, %_ZN6Assimp12_GLOBAL__N_111ChunkWriterC2ERNS_12StreamWriterILb0ELb0EEEt.exit
  %39 = phi ptr [ %.pre2.i.i, %.noexc ], [ %33, %_ZN6Assimp12_GLOBAL__N_111ChunkWriterC2ERNS_12StreamWriterILb0ELb0EEEt.exit ]
  %40 = phi i64 [ %.pre.i.i, %.noexc ], [ %30, %_ZN6Assimp12_GLOBAL__N_111ChunkWriterC2ERNS_12StreamWriterILb0ELb0EEEt.exit ]
  %41 = getelementptr inbounds nuw i8, ptr %39, i64 %40
  store double %1, ptr %41, align 1
  %42 = load i64, ptr %3, align 8
  store i64 %5, ptr %3, align 8
  %43 = add i64 %4, 6
  %44 = load ptr, ptr %7, align 8
  %45 = load ptr, ptr %6, align 8
  %46 = ptrtoint ptr %44 to i64
  %47 = ptrtoint ptr %45 to i64
  %48 = sub i64 %46, %47
  %.not.i.i.i6 = icmp ult i64 %43, %48
  br i1 %.not.i.i.i6, label %_ZN6Assimp12_GLOBAL__N_111ChunkWriterD2Ev.exit, label %49

49:                                               ; preds = %38
  invoke void @_ZNSt6vectorIhSaIhEE6resizeEm(ptr noundef nonnull align 8 dereferenceable(24) %6, i64 noundef %43)
          to label %.noexc.i unwind label %50

.noexc.i:                                         ; preds = %49
  %.pre.i.i.i7 = load i64, ptr %3, align 8
  %.pre2.i.i.i8 = load ptr, ptr %6, align 8
  br label %_ZN6Assimp12_GLOBAL__N_111ChunkWriterD2Ev.exit

50:                                               ; preds = %49
  %51 = landingpad { ptr, i32 }
          catch ptr null
  %52 = extractvalue { ptr, i32 } %51, 0
  tail call void @__clang_call_terminate(ptr %52) #26
  unreachable

_ZN6Assimp12_GLOBAL__N_111ChunkWriterD2Ev.exit:   ; preds = %38, %.noexc.i
  %53 = phi ptr [ %.pre2.i.i.i8, %.noexc.i ], [ %45, %38 ]
  %54 = phi i64 [ %.pre.i.i.i7, %.noexc.i ], [ %5, %38 ]
  %55 = add i64 %42, 8
  %56 = sub i64 %55, %4
  %57 = trunc i64 %56 to i32
  %58 = getelementptr inbounds nuw i8, ptr %53, i64 %54
  store i32 %57, ptr %58, align 1
  store i64 %55, ptr %3, align 8
  ret void

59:                                               ; preds = %37
  %60 = landingpad { ptr, i32 }
          cleanup
  %61 = getelementptr inbounds nuw i8, ptr %0, i64 8
  tail call fastcc void @_ZN6Assimp12_GLOBAL__N_111ChunkWriterD2Ev(ptr nonnull %61, i64 %4) #23
  resume { ptr, i32 } %60
}